#include <math.h>
#include <stdio.h>
#include <stdlib.h>
#include <string.h>


int main(int argc, char* argv[])
{
	int a[100][100],b[100][100],c[100][100]={0},i,j,m,n,p,q,r=0;
	scanf("%d %d",&m,&n);
	for (i=0;i<m;i++)
	{
		for (j=0;j<n;j++)
		{
			scanf("%d",&a[i][j]);
		}
	}
	scanf("%d %d",&p,&q);
	for (i=0;i<p;i++)
	{
		for (j=0;j<q;j++)
		{
			scanf("%d",&b[i][j]);
		}
	}
    for (i=0;i<m;i++)
	{
		for (j=0;j<q;j++)
		{
			r=0;
			while (r<n)
			{
				c[i][j]+=a[i][r]*b[r][j];
				r++;
			}
		}
	}
	for (i=0;i<m;i++)
	{
		for (j=0;j<q;j++)
		{
			if (j==0)
			{
				printf("%d",c[i][j]);
			}
			else
			{
				printf(" %d",c[i][j]);
			}
		}
		printf("\n");
	}
	return 0;
}

